; Function Attrs: mustprogress nounwind uwtable
define internal fastcc void @_ZN5clang19RecursiveASTVisitorIN12_GLOBAL__N_111TypeIndexerEE29TraverseOMPDeclareVariantAttrEPNS_21OMPDeclareVariantAttrE(ptr noundef nonnull readonly align 1 captures(none) dereferenceable(1) %0, ptr noundef readonly captures(none) %1) unnamed_addr #0 align 2 {
  %3 = getelementptr inbounds nuw i8, ptr %1, i64 40
  %4 = load ptr, ptr %3, align 8
  %5 = load ptr, ptr %0, align 8
  %6 = getelementptr inbounds nuw i8, ptr %0, i64 8
  %7 = load ptr, ptr %6, align 8
  %8 = getelementptr inbounds nuw i8, ptr %0, i64 16
  %9 = load ptr, ptr %8, align 8
  tail call void @_ZN5clang5index15IndexingContext9indexBodyEPKNS_4StmtEPKNS_9NamedDeclEPKNS_11DeclContextE(ptr noundef nonnull align 8 dereferenceable(64) %5, ptr noundef %4, ptr noundef %7, ptr noundef %9) #13
  %10 = getelementptr inbounds nuw i8, ptr %1, i64 64
  %11 = load ptr, ptr %10, align 8
  %12 = getelementptr inbounds nuw i8, ptr %1, i64 56
  %13 = load i32, ptr %12, align 8
  %14 = zext i32 %13 to i64
  %15 = getelementptr inbounds nuw ptr, ptr %11, i64 %14
  %.not20 = icmp eq i32 %13, 0
  br i1 %.not20, label %._crit_edge, label %.lr.ph

.lr.ph:                                           ; preds = %2, %.lr.ph
  %.01821 = phi ptr [ %20, %.lr.ph ], [ %11, %2 ]
  %16 = load ptr, ptr %.01821, align 8
  %17 = load ptr, ptr %0, align 8
  %18 = load ptr, ptr %6, align 8
  %19 = load ptr, ptr %8, align 8
  tail call void @_ZN5clang5index15IndexingContext9indexBodyEPKNS_4StmtEPKNS_9NamedDeclEPKNS_11DeclContextE(ptr noundef nonnull align 8 dereferenceable(64) %17, ptr noundef %16, ptr noundef %18, ptr noundef %19) #13
  %20 = getelementptr inbounds nuw i8, ptr %.01821, i64 8
  %.not = icmp eq ptr %20, %15
  br i1 %.not, label %._crit_edge, label %.lr.ph, !llvm.loop !50

._crit_edge:                                      ; preds = %.lr.ph, %2
  %21 = getelementptr inbounds nuw i8, ptr %1, i64 80
  %22 = load ptr, ptr %21, align 8
  %23 = getelementptr inbounds nuw i8, ptr %1, i64 72
  %24 = load i32, ptr %23, align 8
  %25 = zext i32 %24 to i64
  %26 = getelementptr inbounds nuw ptr, ptr %22, i64 %25
  %.not1922 = icmp eq i32 %24, 0
  br i1 %.not1922, label %._crit_edge26, label %.lr.ph25

.lr.ph25:                                         ; preds = %._crit_edge, %.lr.ph25
  %.01723 = phi ptr [ %31, %.lr.ph25 ], [ %22, %._crit_edge ]
  %27 = load ptr, ptr %.01723, align 8
  %28 = load ptr, ptr %0, align 8
  %29 = load ptr, ptr %6, align 8
  %30 = load ptr, ptr %8, align 8
  tail call void @_ZN5clang5index15IndexingContext9indexBodyEPKNS_4StmtEPKNS_9NamedDeclEPKNS_11DeclContextE(ptr noundef nonnull align 8 dereferenceable(64) %28, ptr noundef %27, ptr noundef %29, ptr noundef %30) #13
  %31 = getelementptr inbounds nuw i8, ptr %.01723, i64 8
  %.not19 = icmp eq ptr %31, %26
  br i1 %.not19, label %._crit_edge26, label %.lr.ph25, !llvm.loop !51

._crit_edge26:                                    ; preds = %.lr.ph25, %._crit_edge
  ret void
}